target datalayout = "e-m:e-p270:32:32-p271:32:32-p272:64:64-i64:64-i128:128-f80:128-n8:16:32:64-S128"
target triple = "x86_64-pc-linux-gnu"

%struct.PlatformTarget = type { ptr, i32, ptr, ptr, i32, i32, i32, i32, i32, i32, i32, [7 x %struct.AlignData], [7 x %struct.AlignData], [7 x %struct.AlignData], i32, i16, %union.anon.86, i8, i8, i8, i8, i8, i8, i8, i8, i8, i8, %struct.AlignData, i32, i32, i32, i32, i32, i32, i32, i32, i32, i32, i32, i32, i32, i32, i32, i32, ptr }
%union.anon.86 = type { %struct.anon.88 }
%struct.anon.88 = type { %struct.X86Features, i32, i32 }
%struct.X86Features = type { [2 x i64], ptr }
%struct.AlignData = type { i32, i32 }
%struct.BEValue = type { i8, i32, ptr, ptr, ptr }
%union.SourceSpan = type { i64 }
%struct.Decl_ = type { ptr, ptr, %union.SourceSpan, i64, %union.anon, i32, %union.anon.0, i64, ptr, ptr, ptr, %union.anon.1 }
%union.anon = type { ptr }
%union.anon.0 = type { i16 }
%union.anon.1 = type { %struct.FuncDecl }
%struct.FuncDecl = type { i32, [4 x i8], %struct.Signature_, i32, i32, %union.anon.8 }
%struct.Signature_ = type <{ %struct.CalleeAttributes, i16, i8, i32, i32, [4 x i8], ptr }>
%struct.CalleeAttributes = type { i8 }
%union.anon.8 = type { %struct.anon.9 }
%struct.anon.9 = type { i16, %union.anon.10 }
%union.anon.10 = type { ptr }
%struct.anon.2 = type { ptr, ptr, %union.anon.3 }
%union.anon.3 = type { %struct.BitStructDecl }
%struct.BitStructDecl = type { ptr, ptr, i8 }

@platform_target = external global %struct.PlatformTarget, align 8

; Function Attrs: nounwind uwtable
define internal zeroext i1 @bitstruct_requires_bitswap(ptr noundef %0) #0 {
  %2 = alloca i1, align 1
  %3 = alloca ptr, align 8
  %4 = alloca i8, align 1
  store ptr %0, ptr %3, align 8
  %5 = load i8, ptr getelementptr inbounds (%struct.PlatformTarget, ptr @platform_target, i32 0, i32 17), align 8
  %6 = trunc i8 %5 to i1
  %7 = zext i1 %6 to i8
  store i8 %7, ptr %4, align 1
  %8 = load ptr, ptr %3, align 8
  %9 = getelementptr inbounds %struct.Decl_, ptr %8, i32 0, i32 11
  %10 = getelementptr inbounds %struct.anon.2, ptr %9, i32 0, i32 2
  %11 = getelementptr inbounds %struct.BitStructDecl, ptr %10, i32 0, i32 2
  %12 = load i8, ptr %11, align 8
  %13 = lshr i8 %12, 1
  %14 = and i8 %13, 1
  %15 = trunc i8 %14 to i1
  br i1 %15, label %16, label %20

16:                                               ; preds = %1
  %17 = load i8, ptr %4, align 1
  %18 = trunc i8 %17 to i1
  %19 = xor i1 %18, true
  store i1 %19, ptr %2, align 1
  br label %33

20:                                               ; preds = %1
  %21 = load ptr, ptr %3, align 8
  %22 = getelementptr inbounds %struct.Decl_, ptr %21, i32 0, i32 11
  %23 = getelementptr inbounds %struct.anon.2, ptr %22, i32 0, i32 2
  %24 = getelementptr inbounds %struct.BitStructDecl, ptr %23, i32 0, i32 2
  %25 = load i8, ptr %24, align 8
  %26 = lshr i8 %25, 2
  %27 = and i8 %26, 1
  %28 = trunc i8 %27 to i1
  br i1 %28, label %29, label %32

29:                                               ; preds = %20
  %30 = load i8, ptr %4, align 1
  %31 = trunc i8 %30 to i1
  store i1 %31, ptr %2, align 1
  br label %33

32:                                               ; preds = %20
  store i1 false, ptr %2, align 1
  br label %33

33:                                               ; preds = %32, %29, %16
  %34 = load i1, ptr %2, align 1
  ret i1 %34
}

; Function Attrs: nounwind uwtable
define internal void @llvm_emit_bitassign_array(ptr noundef %0, ptr noundef %1, ptr noundef byval(%struct.BEValue) align 8 %2, ptr noundef %3, ptr noundef %4) #0 {
  %6 = alloca ptr, align 8
  %7 = alloca ptr, align 8
  %8 = alloca ptr, align 8
  %9 = alloca ptr, align 8
  store ptr %0, ptr %6, align 8
  store ptr %1, ptr %7, align 8
  store ptr %3, ptr %8, align 8
  store ptr %4, ptr %9, align 8
  %10 = load ptr, ptr %6, align 8
  call void @llvm_value_addr(ptr noundef %10, ptr noundef %2)
  %11 = load ptr, ptr %6, align 8
  %12 = getelementptr inbounds %struct.BEValue, ptr %2, i32 0, i32 3
  %13 = load ptr, ptr %12, align 8
  %14 = getelementptr inbounds %struct.BEValue, ptr %2, i32 0, i32 1
  %15 = load i32, ptr %14, align 4
  %16 = load ptr, ptr %6, align 8
  %17 = getelementptr inbounds %struct.BEValue, ptr %2, i32 0, i32 2
  %18 = load ptr, ptr %17, align 8
  %19 = call ptr @llvm_get_type(ptr noundef %16, ptr noundef %18)
  %20 = load ptr, ptr %8, align 8
  %21 = call zeroext i1 @bitstruct_requires_bitswap(ptr noundef %20)
  %22 = load ptr, ptr %9, align 8
  %23 = load ptr, ptr %7, align 8
  call void @llvm_emit_update_bitstruct_array(ptr noundef %11, ptr noundef %13, i32 noundef %15, ptr noundef %19, i1 noundef zeroext %21, ptr noundef %22, ptr noundef %23)
  ret void
}