; Function Attrs: nounwind uwtable
define internal fastcc void @llvm_emit_bitassign_array(ptr noundef %0, ptr noundef %1, ptr noundef byval(%struct.BEValue) align 8 %2, ptr nocapture noundef readonly %3, ptr nocapture noundef readonly %4) unnamed_addr #0 {
  call void @llvm_value_addr(ptr noundef %0, ptr noundef nonnull %2) #10
  %6 = getelementptr inbounds i8, ptr %2, i64 16
  %7 = load ptr, ptr %6, align 8
  %8 = getelementptr inbounds i8, ptr %2, i64 4
  %9 = load i32, ptr %8, align 4
  %10 = getelementptr inbounds i8, ptr %2, i64 8
  %11 = load ptr, ptr %10, align 8
  %12 = call ptr @llvm_get_type(ptr noundef %0, ptr noundef %11) #10
  %13 = getelementptr i8, ptr %3, i64 112
  %.val = load i8, ptr %13, align 8
  %14 = load i8, ptr getelementptr inbounds (%struct.PlatformTarget, ptr @platform_target, i64 0, i32 17), align 8
  %15 = trunc i8 %14 to i1
  %16 = and i8 %.val, 2
  %.not.i = icmp eq i8 %16, 0
  br i1 %.not.i, label %19, label %17

17:                                               ; preds = %5
  %18 = xor i1 %15, true
  br label %bitstruct_requires_bitswap.exit

19:                                               ; preds = %5
  %20 = and i8 %.val, 4
  %.not4.i = icmp ne i8 %20, 0
  %..i = select i1 %.not4.i, i1 %15, i1 false
  br label %bitstruct_requires_bitswap.exit

bitstruct_requires_bitswap.exit:                  ; preds = %17, %19
  %.0.i = phi i1 [ %18, %17 ], [ %..i, %19 ]
  call fastcc void @llvm_emit_update_bitstruct_array(ptr noundef %0, ptr noundef %7, i32 noundef %9, ptr noundef %12, i1 noundef zeroext %.0.i, ptr noundef %4, ptr noundef %1)
  ret void
}